target datalayout = "e-m:e-p270:32:32-p271:32:32-p272:64:64-i64:64-i128:128-f80:128-n8:16:32:64-S128"
target triple = "x86_64-pc-linux-gnu"

%"class.gmx::AbstractAnalysisArrayData" = type <{ %"class.gmx::AbstractAnalysisData", i32, %"class.gmx::AnalysisDataPointSetInfo", [4 x i8], %"class.std::vector", %"class.std::vector.25", float, i8, i8, [2 x i8] }>
%"class.gmx::AbstractAnalysisData" = type { ptr, %"class.std::unique_ptr" }
%"class.std::unique_ptr" = type { %"struct.std::__uniq_ptr_data" }
%"struct.std::__uniq_ptr_data" = type { %"class.std::__uniq_ptr_impl" }
%"class.std::__uniq_ptr_impl" = type { %"class.std::tuple" }
%"class.std::tuple" = type { %"struct.std::_Tuple_impl" }
%"struct.std::_Tuple_impl" = type { %"struct.std::_Head_base.24" }
%"struct.std::_Head_base.24" = type { ptr }
%"class.gmx::AnalysisDataPointSetInfo" = type { i32, i32, i32, i32 }
%"class.std::vector" = type { %"struct.std::_Vector_base" }
%"struct.std::_Vector_base" = type { %"struct.std::_Vector_base<gmx::AnalysisDataValue, std::allocator<gmx::AnalysisDataValue>>::_Vector_impl" }
%"struct.std::_Vector_base<gmx::AnalysisDataValue, std::allocator<gmx::AnalysisDataValue>>::_Vector_impl" = type { %"struct.std::_Vector_base<gmx::AnalysisDataValue, std::allocator<gmx::AnalysisDataValue>>::_Vector_impl_data" }
%"struct.std::_Vector_base<gmx::AnalysisDataValue, std::allocator<gmx::AnalysisDataValue>>::_Vector_impl_data" = type { ptr, ptr, ptr }
%"class.std::vector.25" = type { %"struct.std::_Vector_base.26" }
%"struct.std::_Vector_base.26" = type { %"struct.std::_Vector_base<float, std::allocator<float>>::_Vector_impl" }
%"struct.std::_Vector_base<float, std::allocator<float>>::_Vector_impl" = type { %"struct.std::_Vector_base<float, std::allocator<float>>::_Vector_impl_data" }
%"struct.std::_Vector_base<float, std::allocator<float>>::_Vector_impl_data" = type { ptr, ptr, ptr }
%"class.gmx::AnalysisDataValue" = type { float, float, %"class.gmx::FlagsTemplate" }
%"class.gmx::FlagsTemplate" = type { i64 }

; Function Attrs: mustprogress nounwind uwtable
define linkonce_odr noundef nonnull align 8 dereferenceable(16) ptr @_ZNSt6vectorIN3gmx17AnalysisDataValueESaIS1_EEixEm(ptr noundef nonnull align 8 dereferenceable(24) %0, i64 noundef %1) #0 comdat align 2 {
  %3 = alloca ptr, align 8
  %4 = alloca i64, align 8
  store ptr %0, ptr %3, align 8
  store i64 %1, ptr %4, align 8
  %5 = load ptr, ptr %3, align 8
  %6 = getelementptr inbounds %"struct.std::_Vector_base", ptr %5, i32 0, i32 0
  %7 = getelementptr inbounds %"struct.std::_Vector_base<gmx::AnalysisDataValue, std::allocator<gmx::AnalysisDataValue>>::_Vector_impl_data", ptr %6, i32 0, i32 0
  %8 = load ptr, ptr %7, align 8
  %9 = load i64, ptr %4, align 8
  %10 = getelementptr inbounds %"class.gmx::AnalysisDataValue", ptr %8, i64 %9
  ret ptr %10
}

; Function Attrs: mustprogress nounwind uwtable
define linkonce_odr noundef nonnull align 4 dereferenceable(4) ptr @_ZN3gmx17AnalysisDataValue5errorEv(ptr noundef nonnull align 8 dereferenceable(16) %0) #0 comdat align 2 {
  %2 = alloca ptr, align 8
  store ptr %0, ptr %2, align 8
  %3 = load ptr, ptr %2, align 8
  %4 = getelementptr inbounds %"class.gmx::AnalysisDataValue", ptr %3, i32 0, i32 1
  ret ptr %4
}

; Function Attrs: mustprogress nounwind uwtable
define linkonce_odr noundef nonnull align 4 dereferenceable(4) ptr @_ZN3gmx17AnalysisDataValue5valueEv(ptr noundef nonnull align 8 dereferenceable(16) %0) #0 comdat align 2 {
  %2 = alloca ptr, align 8
  store ptr %0, ptr %2, align 8
  %3 = load ptr, ptr %2, align 8
  %4 = getelementptr inbounds %"class.gmx::AnalysisDataValue", ptr %3, i32 0, i32 0
  ret ptr %4
}

; Function Attrs: mustprogress uwtable
define linkonce_odr noundef nonnull align 8 dereferenceable(16) ptr @_ZN3gmx25AbstractAnalysisArrayData5valueEii(ptr noundef nonnull align 8 dereferenceable(94) %0, i32 noundef %1, i32 noundef %2) #2 comdat align 2 {
  %4 = alloca ptr, align 8
  %5 = alloca i32, align 4
  %6 = alloca i32, align 4
  store ptr %0, ptr %4, align 8
  store i32 %1, ptr %5, align 4
  store i32 %2, ptr %6, align 4
  %7 = load ptr, ptr %4, align 8
  %8 = getelementptr inbounds %"class.gmx::AbstractAnalysisArrayData", ptr %7, i32 0, i32 4
  %9 = load i32, ptr %5, align 4
  %10 = call noundef i32 @_ZNK3gmx20AbstractAnalysisData11columnCountEv(ptr noundef nonnull align 8 dereferenceable(16) %7)
  %11 = mul nsw i32 %9, %10
  %12 = load i32, ptr %6, align 4
  %13 = add nsw i32 %11, %12
  %14 = sext i32 %13 to i64
  %15 = call noundef nonnull align 8 dereferenceable(16) ptr @_ZNSt6vectorIN3gmx17AnalysisDataValueESaIS1_EEixEm(ptr noundef nonnull align 8 dereferenceable(24) %8, i64 noundef %14) #14
  ret ptr %15
}

; Function Attrs: mustprogress nounwind uwtable
define linkonce_odr noundef i32 @_ZNK3gmx25AbstractAnalysisArrayData8rowCountEv(ptr noundef nonnull align 8 dereferenceable(94) %0) #0 comdat align 2 {
  %2 = alloca ptr, align 8
  store ptr %0, ptr %2, align 8
  %3 = load ptr, ptr %2, align 8
  %4 = getelementptr inbounds %"class.gmx::AbstractAnalysisArrayData", ptr %3, i32 0, i32 1
  %5 = load i32, ptr %4, align 8
  ret i32 %5
}

; Function Attrs: mustprogress uwtable
define void @_ZN3gmx24AbstractAverageHistogram16scaleAllByVectorEPKf(ptr noundef nonnull align 8 dereferenceable(120) %0, ptr noundef %1) #2 align 2 {
  %3 = alloca ptr, align 8
  %4 = alloca ptr, align 8
  %5 = alloca i32, align 4
  %6 = alloca i32, align 4
  store ptr %0, ptr %3, align 8
  store ptr %1, ptr %4, align 8
  %7 = load ptr, ptr %3, align 8
  store i32 0, ptr %5, align 4
  br label %8

8:                                                ; preds = %44, %2
  %9 = load i32, ptr %5, align 4
  %10 = call noundef i32 @_ZNK3gmx20AbstractAnalysisData11columnCountEv(ptr noundef nonnull align 8 dereferenceable(16) %7)
  %11 = icmp slt i32 %9, %10
  br i1 %11, label %12, label %47

12:                                               ; preds = %8
  store i32 0, ptr %6, align 4
  br label %13

13:                                               ; preds = %40, %12
  %14 = load i32, ptr %6, align 4
  %15 = call noundef i32 @_ZNK3gmx25AbstractAnalysisArrayData8rowCountEv(ptr noundef nonnull align 8 dereferenceable(94) %7)
  %16 = icmp slt i32 %14, %15
  br i1 %16, label %17, label %43

17:                                               ; preds = %13
  %18 = load ptr, ptr %4, align 8
  %19 = load i32, ptr %6, align 4
  %20 = sext i32 %19 to i64
  %21 = getelementptr inbounds float, ptr %18, i64 %20
  %22 = load float, ptr %21, align 4
  %23 = load i32, ptr %6, align 4
  %24 = load i32, ptr %5, align 4
  %25 = call noundef nonnull align 8 dereferenceable(16) ptr @_ZN3gmx25AbstractAnalysisArrayData5valueEii(ptr noundef nonnull align 8 dereferenceable(94) %7, i32 noundef %23, i32 noundef %24)
  %26 = call noundef nonnull align 4 dereferenceable(4) ptr @_ZN3gmx17AnalysisDataValue5valueEv(ptr noundef nonnull align 8 dereferenceable(16) %25)
  %27 = load float, ptr %26, align 4
  %28 = fmul float %27, %22
  store float %28, ptr %26, align 4
  %29 = load ptr, ptr %4, align 8
  %30 = load i32, ptr %6, align 4
  %31 = sext i32 %30 to i64
  %32 = getelementptr inbounds float, ptr %29, i64 %31
  %33 = load float, ptr %32, align 4
  %34 = load i32, ptr %6, align 4
  %35 = load i32, ptr %5, align 4
  %36 = call noundef nonnull align 8 dereferenceable(16) ptr @_ZN3gmx25AbstractAnalysisArrayData5valueEii(ptr noundef nonnull align 8 dereferenceable(94) %7, i32 noundef %34, i32 noundef %35)
  %37 = call noundef nonnull align 4 dereferenceable(4) ptr @_ZN3gmx17AnalysisDataValue5errorEv(ptr noundef nonnull align 8 dereferenceable(16) %36)
  %38 = load float, ptr %37, align 4
  %39 = fmul float %38, %33
  store float %39, ptr %37, align 4
  br label %40

40:                                               ; preds = %17
  %41 = load i32, ptr %6, align 4
  %42 = add nsw i32 %41, 1
  store i32 %42, ptr %6, align 4
  br label %13, !llvm.loop !29

43:                                               ; preds = %13
  br label %44

44:                                               ; preds = %43
  %45 = load i32, ptr %5, align 4
  %46 = add nsw i32 %45, 1
  store i32 %46, ptr %5, align 4
  br label %8, !llvm.loop !30

47:                                               ; preds = %8
  ret void
}