; Function Attrs: mustprogress uwtable
define void @_ZN3gmx24AbstractAverageHistogram16scaleAllByVectorEPKf(ptr noundef nonnull align 8 dereferenceable(120) %0, ptr nocapture noundef readonly %1) local_unnamed_addr #3 align 2 {
  %3 = tail call noundef i32 @_ZNK3gmx20AbstractAnalysisData11columnCountEv(ptr noundef nonnull align 8 dereferenceable(16) %0)
  %4 = icmp sgt i32 %3, 0
  br i1 %4, label %.preheader.lr.ph, label %._crit_edge15

.preheader.lr.ph:                                 ; preds = %2
  %5 = getelementptr inbounds i8, ptr %0, i64 16
  %6 = getelementptr inbounds i8, ptr %0, i64 40
  br label %.preheader

.preheader:                                       ; preds = %.preheader.lr.ph, %._crit_edge
  %.01214 = phi i32 [ 0, %.preheader.lr.ph ], [ %32, %._crit_edge ]
  %7 = load i32, ptr %5, align 8
  %8 = icmp sgt i32 %7, 0
  br i1 %8, label %.lr.ph, label %._crit_edge

.lr.ph:                                           ; preds = %.preheader, %.lr.ph
  %indvars.iv = phi i64 [ %indvars.iv.next, %.lr.ph ], [ 0, %.preheader ]
  %9 = getelementptr inbounds float, ptr %1, i64 %indvars.iv
  %10 = load float, ptr %9, align 4
  %11 = tail call noundef i32 @_ZNK3gmx20AbstractAnalysisData11columnCountEv(ptr noundef nonnull align 8 dereferenceable(16) %0)
  %12 = trunc nuw nsw i64 %indvars.iv to i32
  %13 = mul nsw i32 %11, %12
  %14 = add nsw i32 %13, %.01214
  %15 = sext i32 %14 to i64
  %16 = load ptr, ptr %6, align 8
  %17 = getelementptr inbounds %"class.gmx::AnalysisDataValue", ptr %16, i64 %15
  %18 = load float, ptr %17, align 4
  %19 = fmul float %10, %18
  store float %19, ptr %17, align 4
  %20 = load float, ptr %9, align 4
  %21 = tail call noundef i32 @_ZNK3gmx20AbstractAnalysisData11columnCountEv(ptr noundef nonnull align 8 dereferenceable(16) %0)
  %22 = mul nsw i32 %21, %12
  %23 = add nsw i32 %22, %.01214
  %24 = sext i32 %23 to i64
  %25 = load ptr, ptr %6, align 8
  %26 = getelementptr inbounds %"class.gmx::AnalysisDataValue", ptr %25, i64 %24, i32 1
  %27 = load float, ptr %26, align 4
  %28 = fmul float %20, %27
  store float %28, ptr %26, align 4
  %indvars.iv.next = add nuw nsw i64 %indvars.iv, 1
  %29 = load i32, ptr %5, align 8
  %30 = sext i32 %29 to i64
  %31 = icmp slt i64 %indvars.iv.next, %30
  br i1 %31, label %.lr.ph, label %._crit_edge, !llvm.loop !33

._crit_edge:                                      ; preds = %.lr.ph, %.preheader
  %32 = add nuw nsw i32 %.01214, 1
  %33 = tail call noundef i32 @_ZNK3gmx20AbstractAnalysisData11columnCountEv(ptr noundef nonnull align 8 dereferenceable(16) %0)
  %34 = icmp slt i32 %32, %33
  br i1 %34, label %.preheader, label %._crit_edge15, !llvm.loop !34

._crit_edge15:                                    ; preds = %._crit_edge, %2
  ret void
}